target datalayout = "e-m:e-p270:32:32-p271:32:32-p272:64:64-i64:64-i128:128-f80:128-n8:16:32:64-S128"
target triple = "x86_64-pc-linux-gnu"

@.str.28 = private unnamed_addr constant [9 x i8] c"setlimit\00", align 1

; Function Attrs: nounwind uwtable
define internal ptr @setlimit(ptr noundef %0, ptr noundef %1, i64 noundef %2) #0 {
  %4 = alloca ptr, align 8
  %5 = alloca ptr, align 8
  %6 = alloca i64, align 8
  %7 = alloca ptr, align 8
  %8 = alloca i32, align 4
  %9 = alloca i32, align 4
  store ptr %0, ptr %4, align 8, !tbaa !22
  store ptr %1, ptr %5, align 8, !tbaa !43
  store i64 %2, ptr %6, align 8, !tbaa !39
  call void @llvm.lifetime.start.p0(i64 8, ptr %7) #8
  store ptr null, ptr %7, align 8, !tbaa !22
  call void @llvm.lifetime.start.p0(i64 4, ptr %8) #8
  call void @llvm.lifetime.start.p0(i64 4, ptr %9) #8
  %10 = load i64, ptr %6, align 8, !tbaa !39
  %11 = icmp sle i64 2, %10
  br i1 %11, label %12, label %15

12:                                               ; preds = %3
  %13 = load i64, ptr %6, align 8, !tbaa !39
  %14 = icmp sle i64 %13, 2
  br i1 %14, label %20, label %15

15:                                               ; preds = %12, %3
  %16 = load i64, ptr %6, align 8, !tbaa !39
  %17 = call i32 @_PyArg_CheckPositional(ptr noundef @.str.28, i64 noundef %16, i64 noundef 2, i64 noundef 2)
  %18 = icmp ne i32 %17, 0
  br i1 %18, label %20, label %19

19:                                               ; preds = %15
  br label %47

20:                                               ; preds = %15, %12
  %21 = load ptr, ptr %5, align 8, !tbaa !43
  %22 = getelementptr ptr, ptr %21, i64 0
  %23 = load ptr, ptr %22, align 8, !tbaa !22
  %24 = call i32 @PyLong_AsInt(ptr noundef %23)
  store i32 %24, ptr %8, align 4, !tbaa !30
  %25 = load i32, ptr %8, align 4, !tbaa !30
  %26 = icmp eq i32 %25, -1
  br i1 %26, label %27, label %31

27:                                               ; preds = %20
  %28 = call ptr @PyErr_Occurred()
  %29 = icmp ne ptr %28, null
  br i1 %29, label %30, label %31

30:                                               ; preds = %27
  br label %47

31:                                               ; preds = %27, %20
  %32 = load ptr, ptr %5, align 8, !tbaa !43
  %33 = getelementptr ptr, ptr %32, i64 1
  %34 = load ptr, ptr %33, align 8, !tbaa !22
  %35 = call i32 @PyLong_AsInt(ptr noundef %34)
  store i32 %35, ptr %9, align 4, !tbaa !30
  %36 = load i32, ptr %9, align 4, !tbaa !30
  %37 = icmp eq i32 %36, -1
  br i1 %37, label %38, label %42

38:                                               ; preds = %31
  %39 = call ptr @PyErr_Occurred()
  %40 = icmp ne ptr %39, null
  br i1 %40, label %41, label %42

41:                                               ; preds = %38
  br label %47

42:                                               ; preds = %38, %31
  %43 = load ptr, ptr %4, align 8, !tbaa !22
  %44 = load i32, ptr %8, align 4, !tbaa !30
  %45 = load i32, ptr %9, align 4, !tbaa !30
  %46 = call ptr @setlimit_impl(ptr noundef %43, i32 noundef %44, i32 noundef %45)
  store ptr %46, ptr %7, align 8, !tbaa !22
  br label %47

47:                                               ; preds = %42, %41, %30, %19
  %48 = load ptr, ptr %7, align 8, !tbaa !22
  call void @llvm.lifetime.end.p0(i64 4, ptr %9) #8
  call void @llvm.lifetime.end.p0(i64 4, ptr %8) #8
  call void @llvm.lifetime.end.p0(i64 8, ptr %7) #8
  ret ptr %48
}