; Function Attrs: nounwind uwtable
define internal ptr @setlimit(ptr noundef readonly captures(none) %0, ptr noundef readonly captures(none) %1, i64 noundef %2) #0 {
  %or.cond = icmp eq i64 %2, 2
  br i1 %or.cond, label %6, label %4

4:                                                ; preds = %3
  %5 = tail call i32 @_PyArg_CheckPositional(ptr noundef nonnull @.str.28, i64 noundef %2, i64 noundef 2, i64 noundef 2) #7
  %.not = icmp eq i32 %5, 0
  br i1 %.not, label %20, label %6

6:                                                ; preds = %3, %4
  %7 = load ptr, ptr %1, align 8, !tbaa !25
  %8 = tail call i32 @PyLong_AsInt(ptr noundef %7) #7
  %9 = icmp eq i32 %8, -1
  br i1 %9, label %10, label %12

10:                                               ; preds = %6
  %11 = tail call ptr @PyErr_Occurred() #7
  %.not13 = icmp eq ptr %11, null
  br i1 %.not13, label %12, label %20

12:                                               ; preds = %10, %6
  %13 = getelementptr i8, ptr %1, i64 8
  %14 = load ptr, ptr %13, align 8, !tbaa !25
  %15 = tail call i32 @PyLong_AsInt(ptr noundef %14) #7
  %16 = icmp eq i32 %15, -1
  br i1 %16, label %17, label %.sink.split

17:                                               ; preds = %12
  %18 = tail call ptr @PyErr_Occurred() #7
  %.not14 = icmp eq ptr %18, null
  br i1 %.not14, label %.sink.split, label %20

.sink.split:                                      ; preds = %17, %12
  %.sink = phi i32 [ %15, %12 ], [ -1, %17 ]
  %19 = tail call fastcc ptr @setlimit_impl(ptr noundef %0, i32 noundef %8, i32 noundef %.sink)
  br label %20

20:                                               ; preds = %.sink.split, %17, %10, %4
  %.0 = phi ptr [ null, %10 ], [ null, %17 ], [ null, %4 ], [ %19, %.sink.split ]
  ret ptr %.0
}